target datalayout = "e-m:e-p270:32:32-p271:32:32-p272:64:64-i64:64-i128:128-f80:128-n8:16:32:64-S128"
target triple = "x86_64-pc-linux-gnu"

%"class.cv::Rect_" = type { i32, i32, i32, i32 }
%"class.(anonymous namespace)::ROISelector" = type { %"struct.(anonymous namespace)::ROISelector::handlerT", i32, %"class.cv::Size_", [4 x i8] }
%"struct.(anonymous namespace)::ROISelector::handlerT" = type <{ i8, [7 x i8], %"class.cv::Rect_.0", %"class.cv::Mat", %"class.cv::Point_", i8, [7 x i8] }>
%"class.cv::Rect_.0" = type { double, double, double, double }
%"class.cv::Mat" = type { i32, i32, i32, i32, ptr, ptr, ptr, ptr, ptr, ptr, %"struct.cv::MatSize", %"struct.cv::MatStep" }
%"struct.cv::MatSize" = type { ptr }
%"struct.cv::MatStep" = type { ptr, [2 x i64] }
%"class.cv::Point_" = type { float, float }
%"class.cv::Size_" = type { i32, i32 }
%"class.cv::_InputArray" = type { i32, ptr, %"class.cv::Size_" }

; Function Attrs: inlinehint mustprogress nounwind uwtable
define linkonce_odr hidden void @_ZN2cv6Point_IfEC2Ev(ptr noundef nonnull align 4 dereferenceable(8) %0) unnamed_addr #5 comdat align 2 {
  %2 = alloca ptr, align 8
  store ptr %0, ptr %2, align 8, !tbaa !71
  %3 = load ptr, ptr %2, align 8
  %4 = getelementptr inbounds nuw %"class.cv::Point_", ptr %3, i32 0, i32 0
  store float 0.000000e+00, ptr %4, align 4, !tbaa !73
  %5 = getelementptr inbounds nuw %"class.cv::Point_", ptr %3, i32 0, i32 1
  store float 0.000000e+00, ptr %5, align 4, !tbaa !74
  ret void
}

; Function Attrs: inlinehint mustprogress nounwind uwtable
define linkonce_odr hidden void @_ZN2cv5Rect_IdEC2Ev(ptr noundef nonnull align 8 dereferenceable(32) %0) unnamed_addr #5 comdat align 2 {
  %2 = alloca ptr, align 8
  store ptr %0, ptr %2, align 8, !tbaa !65
  %3 = load ptr, ptr %2, align 8
  %4 = getelementptr inbounds nuw %"class.cv::Rect_.0", ptr %3, i32 0, i32 0
  store double 0.000000e+00, ptr %4, align 8, !tbaa !67
  %5 = getelementptr inbounds nuw %"class.cv::Rect_.0", ptr %3, i32 0, i32 1
  store double 0.000000e+00, ptr %5, align 8, !tbaa !68
  %6 = getelementptr inbounds nuw %"class.cv::Rect_.0", ptr %3, i32 0, i32 2
  store double 0.000000e+00, ptr %6, align 8, !tbaa !69
  %7 = getelementptr inbounds nuw %"class.cv::Rect_.0", ptr %3, i32 0, i32 3
  store double 0.000000e+00, ptr %7, align 8, !tbaa !70
  ret void
}

; Function Attrs: inlinehint mustprogress nounwind uwtable
define internal void @_ZN12_GLOBAL__N_111ROISelector8handlerTD2Ev(ptr noundef nonnull align 8 dereferenceable(145) %0) unnamed_addr #5 align 2 {
  %2 = alloca ptr, align 8
  store ptr %0, ptr %2, align 8, !tbaa !57
  %3 = load ptr, ptr %2, align 8
  %4 = getelementptr inbounds nuw %"struct.(anonymous namespace)::ROISelector::handlerT", ptr %3, i32 0, i32 3
  call void @_ZN2cv3MatD1Ev(ptr noundef nonnull align 8 dereferenceable(96) %4) #17
  ret void
}

; Function Attrs: inlinehint mustprogress nounwind uwtable
define linkonce_odr hidden void @_ZN2cv5Size_IiEC2Ev(ptr noundef nonnull align 4 dereferenceable(8) %0) unnamed_addr #5 comdat align 2 {
  %2 = alloca ptr, align 8
  store ptr %0, ptr %2, align 8, !tbaa !61
  %3 = load ptr, ptr %2, align 8
  %4 = getelementptr inbounds nuw %"class.cv::Size_", ptr %3, i32 0, i32 0
  store i32 0, ptr %4, align 4, !tbaa !63
  %5 = getelementptr inbounds nuw %"class.cv::Size_", ptr %3, i32 0, i32 1
  store i32 0, ptr %5, align 4, !tbaa !64
  ret void
}

; Function Attrs: mustprogress uwtable
define internal void @_ZN12_GLOBAL__N_111ROISelector8handlerTC2Ev(ptr noundef nonnull align 8 dereferenceable(145) %0) unnamed_addr #0 align 2 personality ptr @__gxx_personality_v0 {
  %2 = alloca ptr, align 8
  %3 = alloca ptr, align 8
  %4 = alloca i32, align 4
  store ptr %0, ptr %2, align 8, !tbaa !57
  %5 = load ptr, ptr %2, align 8
  %6 = getelementptr inbounds nuw %"struct.(anonymous namespace)::ROISelector::handlerT", ptr %5, i32 0, i32 0
  store i8 0, ptr %6, align 8, !tbaa !59
  %7 = getelementptr inbounds nuw %"struct.(anonymous namespace)::ROISelector::handlerT", ptr %5, i32 0, i32 2
  call void @_ZN2cv5Rect_IdEC2Ev(ptr noundef nonnull align 8 dereferenceable(32) %7)
  %8 = getelementptr inbounds nuw %"struct.(anonymous namespace)::ROISelector::handlerT", ptr %5, i32 0, i32 3
  call void @_ZN2cv3MatC1Ev(ptr noundef nonnull align 8 dereferenceable(96) %8) #17
  %9 = getelementptr inbounds nuw %"struct.(anonymous namespace)::ROISelector::handlerT", ptr %5, i32 0, i32 4
  invoke void @_ZN2cv6Point_IfEC2Ev(ptr noundef nonnull align 4 dereferenceable(8) %9)
          to label %10 unwind label %12

10:                                               ; preds = %1
  %11 = getelementptr inbounds nuw %"struct.(anonymous namespace)::ROISelector::handlerT", ptr %5, i32 0, i32 5
  store i8 1, ptr %11, align 8, !tbaa !60
  ret void

12:                                               ; preds = %1
  %13 = landingpad { ptr, i32 }
          cleanup
  %14 = extractvalue { ptr, i32 } %13, 0
  store ptr %14, ptr %3, align 8
  %15 = extractvalue { ptr, i32 } %13, 1
  store i32 %15, ptr %4, align 4
  call void @_ZN2cv3MatD1Ev(ptr noundef nonnull align 8 dereferenceable(96) %8) #17
  br label %16

16:                                               ; preds = %12
  %17 = load ptr, ptr %3, align 8
  %18 = load i32, ptr %4, align 4
  %19 = insertvalue { ptr, i32 } poison, ptr %17, 0
  %20 = insertvalue { ptr, i32 } %19, i32 %18, 1
  resume { ptr, i32 } %20
}

; Function Attrs: inlinehint mustprogress nounwind uwtable
define internal void @_ZN12_GLOBAL__N_111ROISelectorD2Ev(ptr noundef nonnull align 8 dereferenceable(164) %0) unnamed_addr #5 align 2 {
  %2 = alloca ptr, align 8
  store ptr %0, ptr %2, align 8, !tbaa !12
  %3 = load ptr, ptr %2, align 8
  %4 = getelementptr inbounds nuw %"class.(anonymous namespace)::ROISelector", ptr %3, i32 0, i32 0
  call void @_ZN12_GLOBAL__N_111ROISelector8handlerTD2Ev(ptr noundef nonnull align 8 dereferenceable(145) %4) #17
  ret void
}

; Function Attrs: inlinehint mustprogress uwtable
define linkonce_odr hidden void @_ZNK2cv11_InputArray6getMatEi(ptr dead_on_unwind noalias writable sret(%"class.cv::Mat") align 8 %0, ptr noundef nonnull align 8 dereferenceable(24) %1, i32 noundef %2) #2 comdat align 2 {
  %4 = alloca ptr, align 8
  %5 = alloca ptr, align 8
  %6 = alloca i32, align 4
  store ptr %0, ptr %4, align 8
  store ptr %1, ptr %5, align 8, !tbaa !3
  store i32 %2, ptr %6, align 4, !tbaa !36
  %7 = load ptr, ptr %5, align 8
  %8 = call noundef i32 @_ZNK2cv11_InputArray4kindEv(ptr noundef nonnull align 8 dereferenceable(24) %7)
  %9 = icmp eq i32 %8, 65536
  br i1 %9, label %10, label %16

10:                                               ; preds = %3
  %11 = load i32, ptr %6, align 4, !tbaa !36
  %12 = icmp slt i32 %11, 0
  br i1 %12, label %13, label %16

13:                                               ; preds = %10
  %14 = getelementptr inbounds nuw %"class.cv::_InputArray", ptr %7, i32 0, i32 1
  %15 = load ptr, ptr %14, align 8, !tbaa !49
  call void @_ZN2cv3MatC1ERKS0_(ptr noundef nonnull align 8 dereferenceable(96) %0, ptr noundef nonnull align 8 dereferenceable(96) %15)
  br label %18

16:                                               ; preds = %10, %3
  %17 = load i32, ptr %6, align 4, !tbaa !36
  call void @_ZNK2cv11_InputArray7getMat_Ei(ptr dead_on_unwind writable sret(%"class.cv::Mat") align 8 %0, ptr noundef nonnull align 8 dereferenceable(24) %7, i32 noundef %17)
  br label %18

18:                                               ; preds = %16, %13
  ret void
}

; Function Attrs: inlinehint mustprogress uwtable
define internal void @_ZN12_GLOBAL__N_111ROISelectorC2Ev(ptr noundef nonnull align 8 dereferenceable(164) %0) unnamed_addr #2 align 2 personality ptr @__gxx_personality_v0 {
  %2 = alloca ptr, align 8
  %3 = alloca ptr, align 8
  %4 = alloca i32, align 4
  store ptr %0, ptr %2, align 8, !tbaa !12
  %5 = load ptr, ptr %2, align 8
  %6 = getelementptr inbounds nuw %"class.(anonymous namespace)::ROISelector", ptr %5, i32 0, i32 0
  call void @_ZN12_GLOBAL__N_111ROISelector8handlerTC2Ev(ptr noundef nonnull align 8 dereferenceable(145) %6)
  %7 = getelementptr inbounds nuw %"class.(anonymous namespace)::ROISelector", ptr %5, i32 0, i32 2
  invoke void @_ZN2cv5Size_IiEC2Ev(ptr noundef nonnull align 4 dereferenceable(8) %7)
          to label %8 unwind label %9

8:                                                ; preds = %1
  ret void

9:                                                ; preds = %1
  %10 = landingpad { ptr, i32 }
          cleanup
  %11 = extractvalue { ptr, i32 } %10, 0
  store ptr %11, ptr %3, align 8
  %12 = extractvalue { ptr, i32 } %10, 1
  store i32 %12, ptr %4, align 4
  call void @_ZN12_GLOBAL__N_111ROISelector8handlerTD2Ev(ptr noundef nonnull align 8 dereferenceable(145) %6) #17
  br label %13

13:                                               ; preds = %9
  %14 = load ptr, ptr %3, align 8
  %15 = load i32, ptr %4, align 4
  %16 = insertvalue { ptr, i32 } poison, ptr %14, 0
  %17 = insertvalue { ptr, i32 } %16, i32 %15, 1
  resume { ptr, i32 } %17
}

; Function Attrs: mustprogress uwtable
define { i64, i64 } @_ZN2cv9selectROIERKNSt7__cxx1112basic_stringIcSt11char_traitsIcESaIcEEERKNS_11_InputArrayEbbb(ptr noundef nonnull align 8 dereferenceable(32) %0, ptr noundef nonnull align 8 dereferenceable(24) %1, i1 noundef zeroext %2, i1 noundef zeroext %3, i1 noundef zeroext %4) #0 personality ptr @__gxx_personality_v0 {
  %6 = alloca %"class.cv::Rect_", align 4
  %7 = alloca ptr, align 8
  %8 = alloca ptr, align 8
  %9 = alloca i8, align 1
  %10 = alloca i8, align 1
  %11 = alloca i8, align 1
  %12 = alloca %"class.(anonymous namespace)::ROISelector", align 8
  %13 = alloca %"class.cv::Mat", align 8
  %14 = alloca ptr, align 8
  %15 = alloca i32, align 4
  store ptr %0, ptr %7, align 8, !tbaa !14
  store ptr %1, ptr %8, align 8, !tbaa !3
  %16 = zext i1 %2 to i8
  store i8 %16, ptr %9, align 1, !tbaa !8
  %17 = zext i1 %3 to i8
  store i8 %17, ptr %10, align 1, !tbaa !8
  %18 = zext i1 %4 to i8
  store i8 %18, ptr %11, align 1, !tbaa !8
  call void @llvm.lifetime.start.p0(i64 168, ptr %12) #17
  call void @_ZN12_GLOBAL__N_111ROISelectorC2Ev(ptr noundef nonnull align 8 dereferenceable(164) %12)
  %19 = load ptr, ptr %7, align 8, !tbaa !14
  %20 = load ptr, ptr %8, align 8, !tbaa !3
  invoke void @_ZNK2cv11_InputArray6getMatEi(ptr dead_on_unwind writable sret(%"class.cv::Mat") align 8 %13, ptr noundef nonnull align 8 dereferenceable(24) %20, i32 noundef -1)
          to label %21 unwind label %35

21:                                               ; preds = %5
  %22 = load i8, ptr %9, align 1, !tbaa !8, !range !10, !noundef !11
  %23 = trunc i8 %22 to i1
  %24 = load i8, ptr %10, align 1, !tbaa !8, !range !10, !noundef !11
  %25 = trunc i8 %24 to i1
  %26 = load i8, ptr %11, align 1, !tbaa !8, !range !10, !noundef !11
  %27 = trunc i8 %26 to i1
  %28 = invoke { i64, i64 } @_ZN12_GLOBAL__N_111ROISelector6selectERKNSt7__cxx1112basic_stringIcSt11char_traitsIcESaIcEEEN2cv3MatEbbb(ptr noundef nonnull align 8 dereferenceable(164) %12, ptr noundef nonnull align 8 dereferenceable(32) %19, ptr noundef %13, i1 noundef zeroext %23, i1 noundef zeroext %25, i1 noundef zeroext %27)
          to label %29 unwind label %39

29:                                               ; preds = %21
  %30 = getelementptr inbounds nuw { i64, i64 }, ptr %6, i32 0, i32 0
  %31 = extractvalue { i64, i64 } %28, 0
  store i64 %31, ptr %30, align 4
  %32 = getelementptr inbounds nuw { i64, i64 }, ptr %6, i32 0, i32 1
  %33 = extractvalue { i64, i64 } %28, 1
  store i64 %33, ptr %32, align 4
  call void @_ZN2cv3MatD1Ev(ptr noundef nonnull align 8 dereferenceable(96) %13) #17
  call void @_ZN12_GLOBAL__N_111ROISelectorD2Ev(ptr noundef nonnull align 8 dereferenceable(164) %12) #17
  call void @llvm.lifetime.end.p0(i64 168, ptr %12) #17
  %34 = load { i64, i64 }, ptr %6, align 4
  ret { i64, i64 } %34

35:                                               ; preds = %5
  %36 = landingpad { ptr, i32 }
          cleanup
  %37 = extractvalue { ptr, i32 } %36, 0
  store ptr %37, ptr %14, align 8
  %38 = extractvalue { ptr, i32 } %36, 1
  store i32 %38, ptr %15, align 4
  br label %43

39:                                               ; preds = %21
  %40 = landingpad { ptr, i32 }
          cleanup
  %41 = extractvalue { ptr, i32 } %40, 0
  store ptr %41, ptr %14, align 8
  %42 = extractvalue { ptr, i32 } %40, 1
  store i32 %42, ptr %15, align 4
  call void @_ZN2cv3MatD1Ev(ptr noundef nonnull align 8 dereferenceable(96) %13) #17
  br label %43

43:                                               ; preds = %39, %35
  call void @_ZN12_GLOBAL__N_111ROISelectorD2Ev(ptr noundef nonnull align 8 dereferenceable(164) %12) #17
  call void @llvm.lifetime.end.p0(i64 168, ptr %12) #17
  br label %44

44:                                               ; preds = %43
  %45 = load ptr, ptr %14, align 8
  %46 = load i32, ptr %15, align 4
  %47 = insertvalue { ptr, i32 } poison, ptr %45, 0
  %48 = insertvalue { ptr, i32 } %47, i32 %46, 1
  resume { ptr, i32 } %48
}