; Function Attrs: mustprogress uwtable
define { i64, i64 } @_ZN2cv9selectROIERKNSt7__cxx1112basic_stringIcSt11char_traitsIcESaIcEEERKNS_11_InputArrayEbbb(ptr noundef nonnull align 8 dereferenceable(32) %0, ptr noundef nonnull align 8 dereferenceable(24) %1, i1 noundef zeroext %2, i1 noundef zeroext %3, i1 noundef zeroext %4) local_unnamed_addr #0 personality ptr @__gxx_personality_v0 {
  %6 = alloca %"class.(anonymous namespace)::ROISelector", align 8
  %7 = alloca %"class.cv::Mat", align 8
  call void @llvm.lifetime.start.p0(i64 168, ptr nonnull %6) #17
  store i8 0, ptr %6, align 8, !tbaa !3
  %8 = getelementptr inbounds nuw i8, ptr %6, i64 8
  call void @llvm.memset.p0.i64(ptr noundef nonnull align 8 dereferenceable(32) %8, i8 0, i64 32, i1 false)
  %9 = getelementptr inbounds nuw i8, ptr %6, i64 40
  call void @_ZN2cv3MatC1Ev(ptr noundef nonnull align 8 dereferenceable(96) %9) #17
  %10 = getelementptr inbounds nuw i8, ptr %6, i64 136
  store float 0.000000e+00, ptr %10, align 8, !tbaa !22
  %11 = getelementptr inbounds nuw i8, ptr %6, i64 140
  store float 0.000000e+00, ptr %11, align 4, !tbaa !23
  %12 = getelementptr inbounds nuw i8, ptr %6, i64 144
  store i8 1, ptr %12, align 8, !tbaa !24
  %13 = getelementptr inbounds nuw i8, ptr %6, i64 156
  store i32 0, ptr %13, align 4, !tbaa !25
  %14 = getelementptr inbounds nuw i8, ptr %6, i64 160
  store i32 0, ptr %14, align 8, !tbaa !27
  %15 = invoke noundef i32 @_ZNK2cv11_InputArray4kindEv(ptr noundef nonnull align 8 dereferenceable(24) %1)
          to label %.noexc unwind label %23

.noexc:                                           ; preds = %5
  %16 = icmp eq i32 %15, 65536
  br i1 %16, label %17, label %20

17:                                               ; preds = %.noexc
  %18 = getelementptr inbounds nuw i8, ptr %1, i64 8
  %19 = load ptr, ptr %18, align 8, !tbaa !34, !noalias !51
  invoke void @_ZN2cv3MatC1ERKS0_(ptr noundef nonnull align 8 dereferenceable(96) %7, ptr noundef nonnull align 8 dereferenceable(96) %19)
          to label %_ZNK2cv11_InputArray6getMatEi.exit unwind label %23

20:                                               ; preds = %.noexc
  invoke void @_ZNK2cv11_InputArray7getMat_Ei(ptr dead_on_unwind nonnull writable sret(%"class.cv::Mat") align 8 %7, ptr noundef nonnull align 8 dereferenceable(24) %1, i32 noundef -1)
          to label %_ZNK2cv11_InputArray6getMatEi.exit unwind label %23

_ZNK2cv11_InputArray6getMatEi.exit:               ; preds = %17, %20
  %21 = invoke fastcc { i64, i64 } @_ZN12_GLOBAL__N_111ROISelector6selectERKNSt7__cxx1112basic_stringIcSt11char_traitsIcESaIcEEEN2cv3MatEbbb(ptr noundef nonnull align 8 dereferenceable(164) %6, ptr noundef nonnull align 8 dereferenceable(32) %0, ptr noundef %7, i1 noundef zeroext %2, i1 noundef zeroext %3, i1 noundef zeroext %4)
          to label %22 unwind label %25

22:                                               ; preds = %_ZNK2cv11_InputArray6getMatEi.exit
  call void @_ZN2cv3MatD1Ev(ptr noundef nonnull align 8 dereferenceable(96) %7) #17
  call void @_ZN2cv3MatD1Ev(ptr noundef nonnull align 8 dereferenceable(96) %9) #17
  call void @llvm.lifetime.end.p0(i64 168, ptr nonnull %6) #17
  ret { i64, i64 } %21

23:                                               ; preds = %20, %17, %5
  %24 = landingpad { ptr, i32 }
          cleanup
  br label %27

25:                                               ; preds = %_ZNK2cv11_InputArray6getMatEi.exit
  %26 = landingpad { ptr, i32 }
          cleanup
  call void @_ZN2cv3MatD1Ev(ptr noundef nonnull align 8 dereferenceable(96) %7) #17
  br label %27

27:                                               ; preds = %25, %23
  %.pn = phi { ptr, i32 } [ %26, %25 ], [ %24, %23 ]
  call void @_ZN2cv3MatD1Ev(ptr noundef nonnull align 8 dereferenceable(96) %9) #17
  call void @llvm.lifetime.end.p0(i64 168, ptr nonnull %6) #17
  resume { ptr, i32 } %.pn
}